; Function Attrs: nounwind uwtable
define hidden i32 @mbedtls_psa_rsa_export_key(i16 noundef zeroext %0, ptr noundef %1, ptr noundef %2, i64 noundef %3, ptr noundef writeonly captures(none) %4) local_unnamed_addr #0 {
  %6 = alloca ptr, align 8
  call void @llvm.lifetime.start.p0(i64 8, ptr nonnull %6) #9
  %7 = getelementptr inbounds nuw i8, ptr %2, i64 %3
  store ptr %7, ptr %6, align 8, !tbaa !15
  %8 = and i16 %0, 28672
  %9 = icmp eq i16 %8, 28672
  br i1 %9, label %10, label %12

10:                                               ; preds = %5
  %11 = call i32 @mbedtls_rsa_write_key(ptr noundef %1, ptr noundef %2, ptr noundef nonnull %6) #9
  br label %14

12:                                               ; preds = %5
  %13 = call i32 @mbedtls_rsa_write_pubkey(ptr noundef %1, ptr noundef %2, ptr noundef nonnull %6) #9
  br label %14

14:                                               ; preds = %12, %10
  %.0 = phi i32 [ %11, %10 ], [ %13, %12 ]
  %15 = icmp slt i32 %.0, 0
  br i1 %15, label %16, label %18

16:                                               ; preds = %14
  call void @llvm.memset.p0.i64(ptr align 1 %2, i8 0, i64 %3, i1 false)
  %17 = call i32 @mbedtls_to_psa_error(i32 noundef %.0) #9
  br label %32

18:                                               ; preds = %14
  %19 = zext nneg i32 %.0 to i64
  %20 = shl nuw nsw i64 %19, 1
  %.not = icmp ugt i64 %20, %3
  br i1 %.not, label %24, label %21

21:                                               ; preds = %18
  %22 = sub nsw i64 0, %19
  %23 = getelementptr inbounds i8, ptr %7, i64 %22
  call void @llvm.memcpy.p0.p0.i64(ptr align 1 %2, ptr align 1 %23, i64 %19, i1 false)
  call void @llvm.memset.p0.i64(ptr align 1 %23, i8 0, i64 %19, i1 false)
  br label %31

24:                                               ; preds = %18
  %25 = icmp samesign ugt i64 %3, %19
  br i1 %25, label %26, label %31

26:                                               ; preds = %24
  %27 = sub nsw i64 0, %19
  %28 = getelementptr inbounds i8, ptr %7, i64 %27
  call void @llvm.memmove.p0.p0.i64(ptr align 1 %2, ptr nonnull align 1 %28, i64 %19, i1 false)
  %29 = getelementptr inbounds nuw i8, ptr %2, i64 %19
  %30 = sub nuw nsw i64 %3, %19
  call void @llvm.memset.p0.i64(ptr align 1 %29, i8 0, i64 %30, i1 false)
  br label %31

31:                                               ; preds = %24, %26, %21
  store i64 %19, ptr %4, align 8, !tbaa !13
  br label %32

32:                                               ; preds = %31, %16
  %.035 = phi i32 [ %17, %16 ], [ 0, %31 ]
  call void @llvm.lifetime.end.p0(i64 8, ptr nonnull %6) #9
  ret i32 %.035
}